target datalayout = "e-m:e-p270:32:32-p271:32:32-p272:64:64-i64:64-i128:128-f80:128-n8:16:32:64-S128"
target triple = "x86_64-pc-linux-gnu"

%struct.CTState = type { ptr, i32, i32, ptr, ptr, ptr, %struct.CCallback, [128 x i16] }
%struct.CCallback = type { [8 x %union.FPRCBArg], [8 x i64], ptr, ptr, ptr, i32, i32, i32 }
%union.FPRCBArg = type { double }
%struct.CType = type { i32, i32, i16, i16, %struct.GCRef }
%struct.GCRef = type { i64 }
%struct.global_State = type { ptr, ptr, %struct.GCState, %struct.GCstr, i8, i8, i8, i8, %struct.StrInternState, i32, %struct.GCRef, %struct.SBuf, %union.TValue, %union.TValue, %struct.Node, %union.TValue, %struct.GCupval, i32, i32, ptr, ptr, ptr, i32, i32, %struct.GCRef, %struct.MRef, %struct.MRef, %struct.PRNGState, [39 x %struct.GCRef] }
%struct.GCState = type { i64, i64, i8, i8, i8, i8, i32, %struct.GCRef, %struct.MRef, %struct.GCRef, %struct.GCRef, %struct.GCRef, %struct.GCRef, i64, i64, i32, i32, %struct.MRef }
%struct.GCstr = type { %struct.GCRef, i8, i8, i8, i8, i32, i32, i32 }
%struct.StrInternState = type { ptr, i32, i32, i32, i8, i8, i8, i8, i64 }
%struct.SBuf = type { ptr, ptr, ptr, %struct.MRef }
%struct.Node = type { %union.TValue, %union.TValue, %struct.MRef }
%union.TValue = type { i64 }
%struct.GCupval = type { %struct.GCRef, i8, i8, i8, i8, %union.anon, %struct.MRef, i32 }
%union.anon = type { %struct.anon.1 }
%struct.anon.1 = type { %struct.GCRef, %struct.GCRef }
%struct.MRef = type { i64 }
%struct.PRNGState = type { [4 x i64] }
%struct.lua_State = type { %struct.GCRef, i8, i8, i8, i8, %struct.MRef, %struct.GCRef, ptr, ptr, %struct.MRef, %struct.MRef, %struct.GCRef, %struct.GCRef, ptr, i32 }

; Function Attrs: alwaysinline nounwind uwtable
define internal i32 @hashrot(i32 noundef %0, i32 noundef %1) #5 {
  %3 = alloca i32, align 4
  %4 = alloca i32, align 4
  store i32 %0, ptr %3, align 4, !tbaa !21
  store i32 %1, ptr %4, align 4, !tbaa !21
  %5 = load i32, ptr %4, align 4, !tbaa !21
  %6 = load i32, ptr %3, align 4, !tbaa !21
  %7 = xor i32 %6, %5
  store i32 %7, ptr %3, align 4, !tbaa !21
  %8 = load i32, ptr %4, align 4, !tbaa !21
  %9 = shl i32 %8, 14
  %10 = load i32, ptr %4, align 4, !tbaa !21
  %11 = lshr i32 %10, 18
  %12 = or i32 %9, %11
  store i32 %12, ptr %4, align 4, !tbaa !21
  %13 = load i32, ptr %4, align 4, !tbaa !21
  %14 = load i32, ptr %3, align 4, !tbaa !21
  %15 = sub i32 %14, %13
  store i32 %15, ptr %3, align 4, !tbaa !21
  %16 = load i32, ptr %4, align 4, !tbaa !21
  %17 = shl i32 %16, 5
  %18 = load i32, ptr %4, align 4, !tbaa !21
  %19 = lshr i32 %18, 27
  %20 = or i32 %17, %19
  store i32 %20, ptr %4, align 4, !tbaa !21
  %21 = load i32, ptr %3, align 4, !tbaa !21
  %22 = load i32, ptr %4, align 4, !tbaa !21
  %23 = xor i32 %22, %21
  store i32 %23, ptr %4, align 4, !tbaa !21
  %24 = load i32, ptr %3, align 4, !tbaa !21
  %25 = shl i32 %24, 13
  %26 = load i32, ptr %3, align 4, !tbaa !21
  %27 = lshr i32 %26, 19
  %28 = or i32 %25, %27
  %29 = load i32, ptr %4, align 4, !tbaa !21
  %30 = sub i32 %29, %28
  store i32 %30, ptr %4, align 4, !tbaa !21
  %31 = load i32, ptr %4, align 4, !tbaa !21
  ret i32 %31
}

; Function Attrs: nounwind uwtable
define internal void @ctype_addtype(ptr noundef %0, ptr noundef %1, i32 noundef %2) #0 {
  %4 = alloca ptr, align 8
  %5 = alloca ptr, align 8
  %6 = alloca i32, align 4
  %7 = alloca i32, align 4
  store ptr %0, ptr %4, align 8, !tbaa !4
  store ptr %1, ptr %5, align 8, !tbaa !25
  store i32 %2, ptr %6, align 4, !tbaa !21
  call void @llvm.lifetime.start.p0(i64 4, ptr %7) #8
  %8 = load ptr, ptr %5, align 8, !tbaa !25
  %9 = getelementptr inbounds nuw %struct.CType, ptr %8, i32 0, i32 0
  %10 = load i32, ptr %9, align 8, !tbaa !26
  %11 = load ptr, ptr %5, align 8, !tbaa !25
  %12 = getelementptr inbounds nuw %struct.CType, ptr %11, i32 0, i32 1
  %13 = load i32, ptr %12, align 4, !tbaa !31
  %14 = call i32 @hashrot(i32 noundef %10, i32 noundef %13)
  %15 = and i32 %14, 127
  store i32 %15, ptr %7, align 4, !tbaa !21
  %16 = load ptr, ptr %4, align 8, !tbaa !4
  %17 = getelementptr inbounds nuw %struct.CTState, ptr %16, i32 0, i32 7
  %18 = load i32, ptr %7, align 4, !tbaa !21
  %19 = zext i32 %18 to i64
  %20 = getelementptr inbounds nuw [128 x i16], ptr %17, i64 0, i64 %19
  %21 = load i16, ptr %20, align 2, !tbaa !35
  %22 = load ptr, ptr %5, align 8, !tbaa !25
  %23 = getelementptr inbounds nuw %struct.CType, ptr %22, i32 0, i32 3
  store i16 %21, ptr %23, align 2, !tbaa !33
  %24 = load i32, ptr %6, align 4, !tbaa !21
  %25 = trunc i32 %24 to i16
  %26 = load ptr, ptr %4, align 8, !tbaa !4
  %27 = getelementptr inbounds nuw %struct.CTState, ptr %26, i32 0, i32 7
  %28 = load i32, ptr %7, align 4, !tbaa !21
  %29 = zext i32 %28 to i64
  %30 = getelementptr inbounds nuw [128 x i16], ptr %27, i64 0, i64 %29
  store i16 %25, ptr %30, align 2, !tbaa !35
  call void @llvm.lifetime.end.p0(i64 4, ptr %7) #8
  ret void
}

; Function Attrs: nounwind uwtable
define hidden void @lj_ctype_addname(ptr noundef %0, ptr noundef %1, i32 noundef %2) #0 {
  %4 = alloca ptr, align 8
  %5 = alloca ptr, align 8
  %6 = alloca i32, align 4
  %7 = alloca i32, align 4
  store ptr %0, ptr %4, align 8, !tbaa !4
  store ptr %1, ptr %5, align 8, !tbaa !25
  store i32 %2, ptr %6, align 4, !tbaa !21
  call void @llvm.lifetime.start.p0(i64 4, ptr %7) #8
  %8 = load ptr, ptr %5, align 8, !tbaa !25
  %9 = getelementptr inbounds nuw %struct.CType, ptr %8, i32 0, i32 4
  %10 = getelementptr inbounds nuw %struct.GCRef, ptr %9, i32 0, i32 0
  %11 = load i64, ptr %10, align 8, !tbaa !34
  %12 = inttoptr i64 %11 to ptr
  %13 = ptrtoint ptr %12 to i64
  %14 = trunc i64 %13 to i32
  %15 = load ptr, ptr %5, align 8, !tbaa !25
  %16 = getelementptr inbounds nuw %struct.CType, ptr %15, i32 0, i32 4
  %17 = getelementptr inbounds nuw %struct.GCRef, ptr %16, i32 0, i32 0
  %18 = load i64, ptr %17, align 8, !tbaa !34
  %19 = inttoptr i64 %18 to ptr
  %20 = ptrtoint ptr %19 to i64
  %21 = trunc i64 %20 to i32
  %22 = add i32 %21, -79764919
  %23 = call i32 @hashrot(i32 noundef %14, i32 noundef %22)
  %24 = and i32 %23, 127
  store i32 %24, ptr %7, align 4, !tbaa !21
  %25 = load ptr, ptr %4, align 8, !tbaa !4
  %26 = getelementptr inbounds nuw %struct.CTState, ptr %25, i32 0, i32 7
  %27 = load i32, ptr %7, align 4, !tbaa !21
  %28 = zext i32 %27 to i64
  %29 = getelementptr inbounds nuw [128 x i16], ptr %26, i64 0, i64 %28
  %30 = load i16, ptr %29, align 2, !tbaa !35
  %31 = load ptr, ptr %5, align 8, !tbaa !25
  %32 = getelementptr inbounds nuw %struct.CType, ptr %31, i32 0, i32 3
  store i16 %30, ptr %32, align 2, !tbaa !33
  %33 = load i32, ptr %6, align 4, !tbaa !21
  %34 = trunc i32 %33 to i16
  %35 = load ptr, ptr %4, align 8, !tbaa !4
  %36 = getelementptr inbounds nuw %struct.CTState, ptr %35, i32 0, i32 7
  %37 = load i32, ptr %7, align 4, !tbaa !21
  %38 = zext i32 %37 to i64
  %39 = getelementptr inbounds nuw [128 x i16], ptr %36, i64 0, i64 %38
  store i16 %34, ptr %39, align 2, !tbaa !35
  call void @llvm.lifetime.end.p0(i64 4, ptr %7) #8
  ret void
}

; Function Attrs: alwaysinline nounwind uwtable
define internal void @ctype_setname(ptr noundef %0, ptr noundef %1) #5 {
  %3 = alloca ptr, align 8
  %4 = alloca ptr, align 8
  store ptr %0, ptr %3, align 8, !tbaa !25
  store ptr %1, ptr %4, align 8, !tbaa !38
  %5 = load ptr, ptr %4, align 8, !tbaa !38
  %6 = getelementptr inbounds nuw %struct.GCstr, ptr %5, i32 0, i32 1
  %7 = load i8, ptr %6, align 8, !tbaa !97
  %8 = zext i8 %7 to i32
  %9 = or i32 %8, 32
  %10 = trunc i32 %9 to i8
  store i8 %10, ptr %6, align 8, !tbaa !97
  %11 = load ptr, ptr %4, align 8, !tbaa !38
  %12 = ptrtoint ptr %11 to i64
  %13 = load ptr, ptr %3, align 8, !tbaa !25
  %14 = getelementptr inbounds nuw %struct.CType, ptr %13, i32 0, i32 4
  %15 = getelementptr inbounds nuw %struct.GCRef, ptr %14, i32 0, i32 0
  store i64 %12, ptr %15, align 8, !tbaa !34
  ret void
}

; Function Attrs: nounwind uwtable
define hidden ptr @lj_ctype_init(ptr noundef %0) #0 {
  %2 = alloca ptr, align 8
  %3 = alloca ptr, align 8
  %4 = alloca ptr, align 8
  %5 = alloca ptr, align 8
  %6 = alloca i32, align 4
  %7 = alloca i32, align 4
  %8 = alloca i64, align 8
  %9 = alloca ptr, align 8
  store ptr %0, ptr %2, align 8, !tbaa !57
  call void @llvm.lifetime.start.p0(i64 8, ptr %3) #8
  %10 = load ptr, ptr %2, align 8, !tbaa !57
  %11 = call ptr @lj_mem_realloc(ptr noundef %10, ptr noundef null, i64 noundef 0, i64 noundef 464)
  store ptr %11, ptr %3, align 8, !tbaa !4
  call void @llvm.lifetime.start.p0(i64 8, ptr %4) #8
  %12 = load ptr, ptr %2, align 8, !tbaa !57
  %13 = call ptr @lj_mem_realloc(ptr noundef %12, ptr noundef null, i64 noundef 0, i64 noundef 3072)
  store ptr %13, ptr %4, align 8, !tbaa !25
  call void @llvm.lifetime.start.p0(i64 8, ptr %5) #8
  store ptr @.str.1, ptr %5, align 8, !tbaa !83
  call void @llvm.lifetime.start.p0(i64 4, ptr %6) #8
  %14 = load ptr, ptr %3, align 8, !tbaa !4
  call void @llvm.memset.p0.i64(ptr align 8 %14, i8 0, i64 464, i1 false)
  %15 = load ptr, ptr %4, align 8, !tbaa !25
  %16 = load ptr, ptr %3, align 8, !tbaa !4
  %17 = getelementptr inbounds nuw %struct.CTState, ptr %16, i32 0, i32 0
  store ptr %15, ptr %17, align 8, !tbaa !24
  %18 = load ptr, ptr %3, align 8, !tbaa !4
  %19 = getelementptr inbounds nuw %struct.CTState, ptr %18, i32 0, i32 2
  store i32 128, ptr %19, align 4, !tbaa !22
  %20 = load ptr, ptr %3, align 8, !tbaa !4
  %21 = getelementptr inbounds nuw %struct.CTState, ptr %20, i32 0, i32 1
  store i32 97, ptr %21, align 8, !tbaa !11
  %22 = load ptr, ptr %3, align 8, !tbaa !4
  %23 = getelementptr inbounds nuw %struct.CTState, ptr %22, i32 0, i32 3
  store ptr null, ptr %23, align 8, !tbaa !23
  %24 = load ptr, ptr %2, align 8, !tbaa !57
  %25 = getelementptr inbounds nuw %struct.lua_State, ptr %24, i32 0, i32 5
  %26 = getelementptr inbounds nuw %struct.MRef, ptr %25, i32 0, i32 0
  %27 = load i64, ptr %26, align 8, !tbaa !58
  %28 = inttoptr i64 %27 to ptr
  %29 = load ptr, ptr %3, align 8, !tbaa !4
  %30 = getelementptr inbounds nuw %struct.CTState, ptr %29, i32 0, i32 4
  store ptr %28, ptr %30, align 8, !tbaa !52
  store i32 0, ptr %6, align 4, !tbaa !21
  br label %31

31:                                               ; preds = %89, %1
  %32 = load i32, ptr %6, align 4, !tbaa !21
  %33 = zext i32 %32 to i64
  %34 = icmp ult i64 %33, 97
  br i1 %34, label %35, label %94

35:                                               ; preds = %31
  call void @llvm.lifetime.start.p0(i64 4, ptr %7) #8
  %36 = load i32, ptr %6, align 4, !tbaa !21
  %37 = zext i32 %36 to i64
  %38 = getelementptr inbounds nuw [98 x i32], ptr @lj_ctype_typeinfo, i64 0, i64 %37
  %39 = load i32, ptr %38, align 4, !tbaa !21
  store i32 %39, ptr %7, align 4, !tbaa !21
  %40 = load i32, ptr %7, align 4, !tbaa !21
  %41 = shl i32 %40, 16
  %42 = ashr i32 %41, 26
  %43 = load ptr, ptr %4, align 8, !tbaa !25
  %44 = getelementptr inbounds nuw %struct.CType, ptr %43, i32 0, i32 1
  store i32 %42, ptr %44, align 4, !tbaa !31
  %45 = load i32, ptr %7, align 4, !tbaa !21
  %46 = and i32 %45, -64513
  %47 = load ptr, ptr %4, align 8, !tbaa !25
  %48 = getelementptr inbounds nuw %struct.CType, ptr %47, i32 0, i32 0
  store i32 %46, ptr %48, align 8, !tbaa !26
  %49 = load ptr, ptr %4, align 8, !tbaa !25
  %50 = getelementptr inbounds nuw %struct.CType, ptr %49, i32 0, i32 2
  store i16 0, ptr %50, align 8, !tbaa !32
  %51 = load i32, ptr %7, align 4, !tbaa !21
  %52 = lshr i32 %51, 28
  %53 = icmp eq i32 %52, 13
  br i1 %53, label %58, label %54

54:                                               ; preds = %35
  %55 = load i32, ptr %7, align 4, !tbaa !21
  %56 = lshr i32 %55, 28
  %57 = icmp eq i32 %56, 7
  br i1 %57, label %58, label %74

58:                                               ; preds = %54, %35
  call void @llvm.lifetime.start.p0(i64 8, ptr %8) #8
  %59 = load ptr, ptr %5, align 8, !tbaa !83
  %60 = call i64 @strlen(ptr noundef %59) #10
  store i64 %60, ptr %8, align 8, !tbaa !47
  call void @llvm.lifetime.start.p0(i64 8, ptr %9) #8
  %61 = load ptr, ptr %2, align 8, !tbaa !57
  %62 = load ptr, ptr %5, align 8, !tbaa !83
  %63 = load i64, ptr %8, align 8, !tbaa !47
  %64 = call ptr @lj_str_new(ptr noundef %61, ptr noundef %62, i64 noundef %63)
  store ptr %64, ptr %9, align 8, !tbaa !38
  %65 = load ptr, ptr %4, align 8, !tbaa !25
  %66 = load ptr, ptr %9, align 8, !tbaa !38
  call void @ctype_setname(ptr noundef %65, ptr noundef %66)
  %67 = load i64, ptr %8, align 8, !tbaa !47
  %68 = add i64 %67, 1
  %69 = load ptr, ptr %5, align 8, !tbaa !83
  %70 = getelementptr inbounds nuw i8, ptr %69, i64 %68
  store ptr %70, ptr %5, align 8, !tbaa !83
  %71 = load ptr, ptr %3, align 8, !tbaa !4
  %72 = load ptr, ptr %4, align 8, !tbaa !25
  %73 = load i32, ptr %6, align 4, !tbaa !21
  call void @lj_ctype_addname(ptr noundef %71, ptr noundef %72, i32 noundef %73)
  call void @llvm.lifetime.end.p0(i64 8, ptr %9) #8
  call void @llvm.lifetime.end.p0(i64 8, ptr %8) #8
  br label %88

74:                                               ; preds = %54
  %75 = load ptr, ptr %4, align 8, !tbaa !25
  %76 = getelementptr inbounds nuw %struct.CType, ptr %75, i32 0, i32 4
  %77 = getelementptr inbounds nuw %struct.GCRef, ptr %76, i32 0, i32 0
  store i64 0, ptr %77, align 8, !tbaa !34
  %78 = load ptr, ptr %4, align 8, !tbaa !25
  %79 = getelementptr inbounds nuw %struct.CType, ptr %78, i32 0, i32 3
  store i16 0, ptr %79, align 2, !tbaa !33
  %80 = load i32, ptr %7, align 4, !tbaa !21
  %81 = lshr i32 %80, 28
  %82 = icmp eq i32 %81, 5
  br i1 %82, label %87, label %83

83:                                               ; preds = %74
  %84 = load ptr, ptr %3, align 8, !tbaa !4
  %85 = load ptr, ptr %4, align 8, !tbaa !25
  %86 = load i32, ptr %6, align 4, !tbaa !21
  call void @ctype_addtype(ptr noundef %84, ptr noundef %85, i32 noundef %86)
  br label %87

87:                                               ; preds = %83, %74
  br label %88

88:                                               ; preds = %87, %58
  call void @llvm.lifetime.end.p0(i64 4, ptr %7) #8
  br label %89

89:                                               ; preds = %88
  %90 = load i32, ptr %6, align 4, !tbaa !21
  %91 = add i32 %90, 1
  store i32 %91, ptr %6, align 4, !tbaa !21
  %92 = load ptr, ptr %4, align 8, !tbaa !25
  %93 = getelementptr inbounds nuw %struct.CType, ptr %92, i32 1
  store ptr %93, ptr %4, align 8, !tbaa !25
  br label %31, !llvm.loop !96

94:                                               ; preds = %31
  %95 = load ptr, ptr %3, align 8, !tbaa !4
  %96 = ptrtoint ptr %95 to i64
  %97 = load ptr, ptr %2, align 8, !tbaa !57
  %98 = getelementptr inbounds nuw %struct.lua_State, ptr %97, i32 0, i32 5
  %99 = getelementptr inbounds nuw %struct.MRef, ptr %98, i32 0, i32 0
  %100 = load i64, ptr %99, align 8, !tbaa !58
  %101 = inttoptr i64 %100 to ptr
  %102 = getelementptr inbounds nuw %struct.global_State, ptr %101, i32 0, i32 26
  %103 = getelementptr inbounds nuw %struct.MRef, ptr %102, i32 0, i32 0
  store i64 %96, ptr %103, align 8, !tbaa !66
  %104 = load ptr, ptr %3, align 8, !tbaa !4
  call void @llvm.lifetime.end.p0(i64 4, ptr %6) #8
  call void @llvm.lifetime.end.p0(i64 8, ptr %5) #8
  call void @llvm.lifetime.end.p0(i64 8, ptr %4) #8
  call void @llvm.lifetime.end.p0(i64 8, ptr %3) #8
  ret ptr %104
}