; Function Attrs: nounwind uwtable
define hidden ptr @lj_ctype_init(ptr noundef %0) local_unnamed_addr #0 {
  %2 = tail call ptr @lj_mem_realloc(ptr noundef %0, ptr noundef null, i64 noundef 0, i64 noundef 464) #14
  %3 = tail call ptr @lj_mem_realloc(ptr noundef %0, ptr noundef null, i64 noundef 0, i64 noundef 3072) #14
  %4 = getelementptr inbounds nuw i8, ptr %2, i64 24
  tail call void @llvm.memset.p0.i64(ptr noundef nonnull align 8 dereferenceable(464) %4, i8 0, i64 440, i1 false)
  store ptr %3, ptr %2, align 8, !tbaa !19
  %5 = getelementptr inbounds nuw i8, ptr %2, i64 12
  store i32 128, ptr %5, align 4, !tbaa !17
  %6 = getelementptr inbounds nuw i8, ptr %2, i64 8
  store i32 97, ptr %6, align 8, !tbaa !4
  %7 = getelementptr inbounds nuw i8, ptr %2, i64 16
  store ptr null, ptr %7, align 8, !tbaa !20
  %8 = getelementptr inbounds nuw i8, ptr %0, i64 16
  %9 = load i64, ptr %8, align 8, !tbaa !47
  %10 = inttoptr i64 %9 to ptr
  %11 = getelementptr inbounds nuw i8, ptr %2, i64 24
  store ptr %10, ptr %11, align 8, !tbaa !44
  %12 = getelementptr inbounds nuw i8, ptr %2, i64 208
  br label %13

13:                                               ; preds = %1, %64
  %indvars.iv = phi i64 [ 0, %1 ], [ %indvars.iv.next, %64 ]
  %.046 = phi ptr [ %3, %1 ], [ %65, %64 ]
  %.04045 = phi ptr [ @.str.1, %1 ], [ %.1, %64 ]
  %14 = getelementptr inbounds nuw [98 x i32], ptr @lj_ctype_typeinfo, i64 0, i64 %indvars.iv
  %15 = load i32, ptr %14, align 4, !tbaa !36
  %16 = shl i32 %15, 16
  %17 = ashr i32 %16, 26
  %18 = getelementptr inbounds nuw i8, ptr %.046, i64 4
  store i32 %17, ptr %18, align 4, !tbaa !29
  %19 = and i32 %15, -64513
  store i32 %19, ptr %.046, align 8, !tbaa !28
  %20 = getelementptr inbounds nuw i8, ptr %.046, i64 8
  store i16 0, ptr %20, align 8, !tbaa !32
  %21 = lshr i32 %15, 28
  switch i32 %21, label %47 [
    i32 13, label %22
    i32 7, label %22
  ]

22:                                               ; preds = %13, %13
  %23 = tail call i64 @strlen(ptr noundef nonnull dereferenceable(1) %.04045) #15
  %24 = tail call ptr @lj_str_new(ptr noundef %0, ptr noundef nonnull %.04045, i64 noundef %23) #14
  %25 = getelementptr inbounds nuw i8, ptr %24, i64 8
  %26 = load i8, ptr %25, align 8, !tbaa !83
  %27 = or i8 %26, 32
  store i8 %27, ptr %25, align 8, !tbaa !83
  %28 = ptrtoint ptr %24 to i64
  %29 = getelementptr inbounds nuw i8, ptr %.046, i64 16
  store i64 %28, ptr %29, align 8, !tbaa !22
  %30 = getelementptr i8, ptr %.04045, i64 %23
  %31 = getelementptr i8, ptr %30, i64 1
  %32 = trunc i64 %28 to i32
  %33 = add i32 %32, -79764919
  %34 = xor i32 %33, %32
  %35 = tail call i32 @llvm.fshl.i32(i32 %33, i32 %33, i32 14)
  %36 = sub i32 %34, %35
  %37 = tail call i32 @llvm.fshl.i32(i32 %35, i32 %35, i32 5)
  %38 = xor i32 %37, %36
  %39 = lshr i32 %36, 19
  %40 = sub i32 %38, %39
  %41 = and i32 %40, 127
  %42 = zext nneg i32 %41 to i64
  %43 = getelementptr inbounds nuw [128 x i16], ptr %12, i64 0, i64 %42
  %44 = load i16, ptr %43, align 2, !tbaa !27
  %45 = getelementptr inbounds nuw i8, ptr %.046, i64 10
  store i16 %44, ptr %45, align 2, !tbaa !33
  %46 = trunc i64 %indvars.iv to i16
  store i16 %46, ptr %43, align 2, !tbaa !27
  br label %64

47:                                               ; preds = %13
  %48 = getelementptr inbounds nuw i8, ptr %.046, i64 16
  store i64 0, ptr %48, align 8, !tbaa !22
  %49 = getelementptr inbounds nuw i8, ptr %.046, i64 10
  store i16 0, ptr %49, align 2, !tbaa !33
  %50 = icmp eq i32 %21, 5
  br i1 %50, label %64, label %51

51:                                               ; preds = %47
  %52 = xor i32 %17, %19
  %53 = tail call i32 @llvm.fshl.i32(i32 %17, i32 %17, i32 14)
  %54 = sub i32 %52, %53
  %55 = tail call i32 @llvm.fshl.i32(i32 %53, i32 %53, i32 5)
  %56 = xor i32 %55, %54
  %57 = lshr i32 %54, 19
  %58 = sub i32 %56, %57
  %59 = and i32 %58, 127
  %60 = zext nneg i32 %59 to i64
  %61 = getelementptr inbounds nuw [128 x i16], ptr %12, i64 0, i64 %60
  %62 = load i16, ptr %61, align 2, !tbaa !27
  store i16 %62, ptr %49, align 2, !tbaa !33
  %63 = trunc i64 %indvars.iv to i16
  store i16 %63, ptr %61, align 2, !tbaa !27
  br label %64

64:                                               ; preds = %47, %51, %22
  %.1 = phi ptr [ %31, %22 ], [ %.04045, %47 ], [ %.04045, %51 ]
  %indvars.iv.next = add nuw nsw i64 %indvars.iv, 1
  %65 = getelementptr inbounds nuw i8, ptr %.046, i64 24
  %exitcond.not = icmp eq i64 %indvars.iv.next, 97
  br i1 %exitcond.not, label %66, label %13, !llvm.loop !84

66:                                               ; preds = %64
  %67 = ptrtoint ptr %2 to i64
  %68 = load i64, ptr %8, align 8, !tbaa !47
  %69 = inttoptr i64 %68 to ptr
  %70 = getelementptr inbounds nuw i8, ptr %69, i64 384
  store i64 %67, ptr %70, align 8, !tbaa !56
  ret ptr %2
}